target datalayout = "e-m:e-p270:32:32-p271:32:32-p272:64:64-i64:64-i128:128-f80:128-n8:16:32:64-S128"
target triple = "x86_64-pc-linux-gnu"

%struct.FunctionCallInfoBaseData = type { ptr, ptr, ptr, i32, i8, i16, [0 x %struct.NullableDatum] }
%struct.NullableDatum = type { i64, i8 }
%struct.anon = type { i32, [0 x i8] }
%struct.ArrayType = type { i32, i32, i32, i32 }
%struct.ExpandedArrayHeader = type { %struct.ExpandedObjectHeader, i32, i32, ptr, ptr, i32, i16, i8, i8, ptr, ptr, i32, i32, i64, ptr, ptr, ptr }
%struct.ExpandedObjectHeader = type { i32, ptr, ptr, [10 x i8], [10 x i8] }

; Function Attrs: inlinehint nounwind uwtable
define internal i64 @Int32GetDatum(i32 noundef %0) #2 {
  %2 = alloca i32, align 4
  store i32 %0, ptr %2, align 4
  %3 = load i32, ptr %2, align 4
  %4 = sext i32 %3 to i64
  ret i64 %4
}

; Function Attrs: nounwind uwtable
define dso_local i64 @array_cardinality(ptr noundef %0) #0 {
  %2 = alloca ptr, align 8
  %3 = alloca ptr, align 8
  store ptr %0, ptr %2, align 8
  call void @llvm.lifetime.start.p0(i64 8, ptr %3) #11
  %4 = load ptr, ptr %2, align 8
  %5 = getelementptr inbounds nuw %struct.FunctionCallInfoBaseData, ptr %4, i32 0, i32 6
  %6 = getelementptr inbounds [0 x %struct.NullableDatum], ptr %5, i64 0, i64 0
  %7 = getelementptr inbounds nuw %struct.NullableDatum, ptr %6, i32 0, i32 0
  %8 = load i64, ptr %7, align 8
  %9 = call ptr @DatumGetAnyArrayP(i64 noundef %8)
  store ptr %9, ptr %3, align 8
  %10 = load ptr, ptr %3, align 8
  %11 = getelementptr inbounds nuw %struct.anon, ptr %10, i32 0, i32 0
  %12 = load i32, ptr %11, align 4
  %13 = icmp eq i32 %12, -1
  br i1 %13, label %14, label %18

14:                                               ; preds = %1
  %15 = load ptr, ptr %3, align 8
  %16 = getelementptr inbounds nuw %struct.ExpandedArrayHeader, ptr %15, i32 0, i32 2
  %17 = load i32, ptr %16, align 4
  br label %22

18:                                               ; preds = %1
  %19 = load ptr, ptr %3, align 8
  %20 = getelementptr inbounds nuw %struct.ArrayType, ptr %19, i32 0, i32 1
  %21 = load i32, ptr %20, align 4
  br label %22

22:                                               ; preds = %18, %14
  %23 = phi i32 [ %17, %14 ], [ %21, %18 ]
  %24 = load ptr, ptr %3, align 8
  %25 = getelementptr inbounds nuw %struct.anon, ptr %24, i32 0, i32 0
  %26 = load i32, ptr %25, align 4
  %27 = icmp eq i32 %26, -1
  br i1 %27, label %28, label %32

28:                                               ; preds = %22
  %29 = load ptr, ptr %3, align 8
  %30 = getelementptr inbounds nuw %struct.ExpandedArrayHeader, ptr %29, i32 0, i32 3
  %31 = load ptr, ptr %30, align 8
  br label %35

32:                                               ; preds = %22
  %33 = load ptr, ptr %3, align 8
  %34 = getelementptr inbounds nuw i8, ptr %33, i64 16
  br label %35

35:                                               ; preds = %32, %28
  %36 = phi ptr [ %31, %28 ], [ %34, %32 ]
  %37 = call i32 @ArrayGetNItems(i32 noundef %23, ptr noundef %36)
  %38 = call i64 @Int32GetDatum(i32 noundef %37)
  call void @llvm.lifetime.end.p0(i64 8, ptr %3) #11
  ret i64 %38
}