; Function Attrs: nounwind uwtable
define dso_local range(i64 -2147483648, 2147483648) i64 @array_cardinality(ptr noundef readonly captures(none) %0) local_unnamed_addr #0 {
  %2 = getelementptr inbounds nuw i8, ptr %0, i64 32
  %3 = load i64, ptr %2, align 8
  %4 = tail call ptr @DatumGetAnyArrayP(i64 noundef %3) #18
  %5 = load i32, ptr %4, align 4
  %6 = icmp eq i32 %5, -1
  %.in.v = select i1 %6, i64 52, i64 4
  %.in = getelementptr inbounds nuw i8, ptr %4, i64 %.in.v
  %7 = load i32, ptr %.in, align 4
  br i1 %6, label %8, label %11

8:                                                ; preds = %1
  %9 = getelementptr inbounds nuw i8, ptr %4, i64 56
  %10 = load ptr, ptr %9, align 8
  br label %13

11:                                               ; preds = %1
  %12 = getelementptr inbounds nuw i8, ptr %4, i64 16
  br label %13

13:                                               ; preds = %11, %8
  %14 = phi ptr [ %10, %8 ], [ %12, %11 ]
  %15 = tail call i32 @ArrayGetNItems(i32 noundef %7, ptr noundef %14) #18
  %16 = sext i32 %15 to i64
  ret i64 %16
}